; ModuleID = '29/1046.c'
source_filename = "29/1046.c"
target datalayout = "e-m:e-p270:32:32-p271:32:32-p272:64:64-i64:64-f80:128-n8:16:32:64-S128"
target triple = "x86_64-pc-linux-gnu"

@.str = private unnamed_addr constant [3 x i8] c"%d\00", align 1
@.str.1 = private unnamed_addr constant [7 x i8] c"%.3lf\0A\00", align 1

; Function Attrs: noinline nounwind uwtable
define dso_local i32 @main() #0 {
  %1 = alloca i32, align 4
  %2 = alloca i32, align 4
  %3 = alloca i32, align 4
  %4 = alloca i32, align 4
  %5 = alloca double, align 8
  %6 = alloca [1000 x i32], align 16
  %7 = alloca i32, align 4
  %8 = alloca [1000 x double], align 16
  %9 = alloca i32, align 4
  %10 = alloca i32, align 4
  store i32 0, i32* %1, align 4
  %11 = call i32 (i8*, ...) @__isoc99_scanf(i8* getelementptr inbounds ([3 x i8], [3 x i8]* @.str, i64 0, i64 0), i32* %2)
  store i32 0, i32* %4, align 4
  br label %12

12:                                               ; preds = %83, %0
  %13 = load i32, i32* %4, align 4
  %14 = load i32, i32* %2, align 4
  %15 = icmp slt i32 %13, %14
  br i1 %15, label %16, label %86

16:                                               ; preds = %12
  %17 = call i32 (i8*, ...) @__isoc99_scanf(i8* getelementptr inbounds ([3 x i8], [3 x i8]* @.str, i64 0, i64 0), i32* %3)
  store double 0.000000e+00, double* %5, align 8
  %18 = getelementptr inbounds [1000 x i32], [1000 x i32]* %6, i64 0, i64 0
  store i32 1, i32* %18, align 16
  %19 = getelementptr inbounds [1000 x i32], [1000 x i32]* %6, i64 0, i64 1
  store i32 2, i32* %19, align 4
  store i32 2, i32* %7, align 4
  br label %20

20:                                               ; preds = %38, %16
  %21 = load i32, i32* %7, align 4
  %22 = icmp slt i32 %21, 1000
  br i1 %22, label %23, label %41

23:                                               ; preds = %20
  %24 = load i32, i32* %7, align 4
  %25 = sub nsw i32 %24, 1
  %26 = sext i32 %25 to i64
  %27 = getelementptr inbounds [1000 x i32], [1000 x i32]* %6, i64 0, i64 %26
  %28 = load i32, i32* %27, align 4
  %29 = load i32, i32* %7, align 4
  %30 = sub nsw i32 %29, 2
  %31 = sext i32 %30 to i64
  %32 = getelementptr inbounds [1000 x i32], [1000 x i32]* %6, i64 0, i64 %31
  %33 = load i32, i32* %32, align 4
  %34 = add nsw i32 %28, %33
  %35 = load i32, i32* %7, align 4
  %36 = sext i32 %35 to i64
  %37 = getelementptr inbounds [1000 x i32], [1000 x i32]* %6, i64 0, i64 %36
  store i32 %34, i32* %37, align 4
  br label %38

38:                                               ; preds = %23
  %39 = load i32, i32* %7, align 4
  %40 = add nsw i32 %39, 1
  store i32 %40, i32* %7, align 4
  br label %20

41:                                               ; preds = %20
  store i32 1, i32* %9, align 4
  br label %42

42:                                               ; preds = %62, %41
  %43 = load i32, i32* %9, align 4
  %44 = icmp slt i32 %43, 1000
  br i1 %44, label %45, label %65

45:                                               ; preds = %42
  %46 = load i32, i32* %9, align 4
  %47 = sext i32 %46 to i64
  %48 = getelementptr inbounds [1000 x i32], [1000 x i32]* %6, i64 0, i64 %47
  %49 = load i32, i32* %48, align 4
  %50 = sitofp i32 %49 to double
  %51 = fmul double 1.000000e+00, %50
  %52 = load i32, i32* %9, align 4
  %53 = sub nsw i32 %52, 1
  %54 = sext i32 %53 to i64
  %55 = getelementptr inbounds [1000 x i32], [1000 x i32]* %6, i64 0, i64 %54
  %56 = load i32, i32* %55, align 4
  %57 = sitofp i32 %56 to double
  %58 = fdiv double %51, %57
  %59 = load i32, i32* %9, align 4
  %60 = sext i32 %59 to i64
  %61 = getelementptr inbounds [1000 x double], [1000 x double]* %8, i64 0, i64 %60
  store double %58, double* %61, align 8
  br label %62

62:                                               ; preds = %45
  %63 = load i32, i32* %9, align 4
  %64 = add nsw i32 %63, 1
  store i32 %64, i32* %9, align 4
  br label %42

65:                                               ; preds = %42
  store i32 1, i32* %10, align 4
  br label %66

66:                                               ; preds = %77, %65
  %67 = load i32, i32* %10, align 4
  %68 = load i32, i32* %3, align 4
  %69 = icmp sle i32 %67, %68
  br i1 %69, label %70, label %80

70:                                               ; preds = %66
  %71 = load i32, i32* %10, align 4
  %72 = sext i32 %71 to i64
  %73 = getelementptr inbounds [1000 x double], [1000 x double]* %8, i64 0, i64 %72
  %74 = load double, double* %73, align 8
  %75 = load double, double* %5, align 8
  %76 = fadd double %75, %74
  store double %76, double* %5, align 8
  br label %77

77:                                               ; preds = %70
  %78 = load i32, i32* %10, align 4
  %79 = add nsw i32 %78, 1
  store i32 %79, i32* %10, align 4
  br label %66

80:                                               ; preds = %66
  %81 = load double, double* %5, align 8
  %82 = call i32 (i8*, ...) @printf(i8* getelementptr inbounds ([7 x i8], [7 x i8]* @.str.1, i64 0, i64 0), double %81)
  br label %83

83:                                               ; preds = %80
  %84 = load i32, i32* %4, align 4
  %85 = add nsw i32 %84, 1
  store i32 %85, i32* %4, align 4
  br label %12

86:                                               ; preds = %12
  ret i32 0
}

declare dso_local i32 @__isoc99_scanf(i8*, ...) #1

declare dso_local i32 @printf(i8*, ...) #1


!llvm.module.flags = !{!0}
!llvm.ident = !{!1}

!0 = !{i32 1, !"wchar_size", i32 4}
!1 = !{!"clang version 10.0.0-4ubuntu1 "}
